target datalayout = "e-m:e-p270:32:32-p271:32:32-p272:64:64-i64:64-i128:128-f80:128-n8:16:32:64-S128"
target triple = "x86_64-pc-linux-gnu"

%"struct.cv::detail::CheckContext" = type { ptr, ptr, i32, i32, ptr, ptr, ptr }
%"struct.std::_Vector_base.69" = type { %"struct.std::_Vector_base<int, std::allocator<int>>::_Vector_impl" }
%"struct.std::_Vector_base<int, std::allocator<int>>::_Vector_impl" = type { %"struct.std::_Vector_base<int, std::allocator<int>>::_Vector_impl_data" }
%"struct.std::_Vector_base<int, std::allocator<int>>::_Vector_impl_data" = type { ptr, ptr, ptr }
%"class.__gnu_cxx::__normal_iterator.140" = type { ptr }

@_ZZN2cv3dnn14dnn4_v20241223L5totalERKSt6vectorIiSaIiEEiiE15__cv_check__171 = internal constant %"struct.cv::detail::CheckContext" { ptr @.str.652, ptr @.str.647, i32 171, i32 3, ptr @.str.57, ptr @.str.84, ptr @.str.653 }, align 8
@_ZZN2cv3dnn14dnn4_v20241223L5totalERKSt6vectorIiSaIiEEiiE15__cv_check__172 = internal constant %"struct.cv::detail::CheckContext" { ptr @.str.652, ptr @.str.647, i32 172, i32 3, ptr @.str.57, ptr @.str.653, ptr @.str.202 }, align 8
@_ZZN2cv3dnn14dnn4_v20241223L5totalERKSt6vectorIiSaIiEEiiE15__cv_check__173 = internal constant %"struct.cv::detail::CheckContext" { ptr @.str.652, ptr @.str.647, i32 173, i32 3, ptr @.str.57, ptr @.str.202, ptr @.str.197 }, align 8

; Function Attrs: mustprogress nounwind uwtable
define linkonce_odr hidden noundef nonnull align 8 dereferenceable(8) ptr @_ZNK9__gnu_cxx17__normal_iteratorIPKiSt6vectorIiSaIiEEE4baseEv(ptr noundef nonnull align 8 dereferenceable(8) %0) #4 comdat align 2 {
  %2 = alloca ptr, align 8
  store ptr %0, ptr %2, align 8, !tbaa !433
  %3 = load ptr, ptr %2, align 8
  %4 = getelementptr inbounds nuw %"class.__gnu_cxx::__normal_iterator.140", ptr %3, i32 0, i32 0
  ret ptr %4
}

; Function Attrs: mustprogress nounwind uwtable
define linkonce_odr hidden void @_ZN9__gnu_cxx17__normal_iteratorIPKiSt6vectorIiSaIiEEEC2ERKS2_(ptr noundef nonnull align 8 dereferenceable(8) %0, ptr noundef nonnull align 8 dereferenceable(8) %1) unnamed_addr #4 comdat align 2 {
  %3 = alloca ptr, align 8
  %4 = alloca ptr, align 8
  store ptr %0, ptr %3, align 8, !tbaa !433
  store ptr %1, ptr %4, align 8, !tbaa !741
  %5 = load ptr, ptr %3, align 8
  %6 = getelementptr inbounds nuw %"class.__gnu_cxx::__normal_iterator.140", ptr %5, i32 0, i32 0
  %7 = load ptr, ptr %4, align 8, !tbaa !741
  %8 = load ptr, ptr %7, align 8, !tbaa !201
  store ptr %8, ptr %6, align 8, !tbaa !435
  ret void
}

; Function Attrs: inlinehint mustprogress nounwind uwtable
define linkonce_odr noundef zeroext i1 @_ZN9__gnu_cxxeqIPKiSt6vectorIiSaIiEEEEbRKNS_17__normal_iteratorIT_T0_EESB_(ptr noundef nonnull align 8 dereferenceable(8) %0, ptr noundef nonnull align 8 dereferenceable(8) %1) #5 comdat {
  %3 = alloca ptr, align 8
  %4 = alloca ptr, align 8
  store ptr %0, ptr %3, align 8, !tbaa !433
  store ptr %1, ptr %4, align 8, !tbaa !433
  %5 = load ptr, ptr %3, align 8, !tbaa !433
  %6 = call noundef nonnull align 8 dereferenceable(8) ptr @_ZNK9__gnu_cxx17__normal_iteratorIPKiSt6vectorIiSaIiEEE4baseEv(ptr noundef nonnull align 8 dereferenceable(8) %5) #3
  %7 = load ptr, ptr %6, align 8, !tbaa !201
  %8 = load ptr, ptr %4, align 8, !tbaa !433
  %9 = call noundef nonnull align 8 dereferenceable(8) ptr @_ZNK9__gnu_cxx17__normal_iteratorIPKiSt6vectorIiSaIiEEE4baseEv(ptr noundef nonnull align 8 dereferenceable(8) %8) #3
  %10 = load ptr, ptr %9, align 8, !tbaa !201
  %11 = icmp eq ptr %7, %10
  ret i1 %11
}

; Function Attrs: mustprogress nounwind uwtable
define linkonce_odr hidden ptr @_ZNKSt6vectorIiSaIiEE3endEv(ptr noundef nonnull align 8 dereferenceable(24) %0) #4 comdat align 2 {
  %2 = alloca %"class.__gnu_cxx::__normal_iterator.140", align 8
  %3 = alloca ptr, align 8
  store ptr %0, ptr %3, align 8, !tbaa !215
  %4 = load ptr, ptr %3, align 8
  %5 = getelementptr inbounds nuw %"struct.std::_Vector_base.69", ptr %4, i32 0, i32 0
  %6 = getelementptr inbounds nuw %"struct.std::_Vector_base<int, std::allocator<int>>::_Vector_impl_data", ptr %5, i32 0, i32 1
  call void @_ZN9__gnu_cxx17__normal_iteratorIPKiSt6vectorIiSaIiEEEC2ERKS2_(ptr noundef nonnull align 8 dereferenceable(8) %2, ptr noundef nonnull align 8 dereferenceable(8) %6) #3
  %7 = getelementptr inbounds nuw %"class.__gnu_cxx::__normal_iterator.140", ptr %2, i32 0, i32 0
  %8 = load ptr, ptr %7, align 8
  ret ptr %8
}

; Function Attrs: mustprogress nounwind uwtable
define linkonce_odr hidden ptr @_ZNKSt6vectorIiSaIiEE5beginEv(ptr noundef nonnull align 8 dereferenceable(24) %0) #4 comdat align 2 {
  %2 = alloca %"class.__gnu_cxx::__normal_iterator.140", align 8
  %3 = alloca ptr, align 8
  store ptr %0, ptr %3, align 8, !tbaa !215
  %4 = load ptr, ptr %3, align 8
  %5 = getelementptr inbounds nuw %"struct.std::_Vector_base.69", ptr %4, i32 0, i32 0
  %6 = getelementptr inbounds nuw %"struct.std::_Vector_base<int, std::allocator<int>>::_Vector_impl_data", ptr %5, i32 0, i32 0
  call void @_ZN9__gnu_cxx17__normal_iteratorIPKiSt6vectorIiSaIiEEEC2ERKS2_(ptr noundef nonnull align 8 dereferenceable(8) %2, ptr noundef nonnull align 8 dereferenceable(8) %6) #3
  %7 = getelementptr inbounds nuw %"class.__gnu_cxx::__normal_iterator.140", ptr %2, i32 0, i32 0
  %8 = load ptr, ptr %7, align 8
  ret ptr %8
}

; Function Attrs: mustprogress nounwind uwtable
define linkonce_odr hidden noundef nonnull align 4 dereferenceable(4) ptr @_ZNKSt6vectorIiSaIiEEixEm(ptr noundef nonnull align 8 dereferenceable(24) %0, i64 noundef %1) #4 comdat align 2 {
  %3 = alloca ptr, align 8
  %4 = alloca i64, align 8
  store ptr %0, ptr %3, align 8, !tbaa !215
  store i64 %1, ptr %4, align 8, !tbaa !166
  %5 = load ptr, ptr %3, align 8
  %6 = getelementptr inbounds nuw %"struct.std::_Vector_base.69", ptr %5, i32 0, i32 0
  %7 = getelementptr inbounds nuw %"struct.std::_Vector_base<int, std::allocator<int>>::_Vector_impl_data", ptr %6, i32 0, i32 0
  %8 = load ptr, ptr %7, align 8, !tbaa !216
  %9 = load i64, ptr %4, align 8, !tbaa !166
  %10 = getelementptr inbounds nuw i32, ptr %8, i64 %9
  ret ptr %10
}

; Function Attrs: mustprogress nounwind uwtable
define linkonce_odr hidden noundef i64 @_ZNKSt6vectorIiSaIiEE4sizeEv(ptr noundef nonnull align 8 dereferenceable(24) %0) #4 comdat align 2 {
  %2 = alloca ptr, align 8
  store ptr %0, ptr %2, align 8, !tbaa !215
  %3 = load ptr, ptr %2, align 8
  %4 = getelementptr inbounds nuw %"struct.std::_Vector_base.69", ptr %3, i32 0, i32 0
  %5 = getelementptr inbounds nuw %"struct.std::_Vector_base<int, std::allocator<int>>::_Vector_impl_data", ptr %4, i32 0, i32 1
  %6 = load ptr, ptr %5, align 8, !tbaa !218
  %7 = getelementptr inbounds nuw %"struct.std::_Vector_base.69", ptr %3, i32 0, i32 0
  %8 = getelementptr inbounds nuw %"struct.std::_Vector_base<int, std::allocator<int>>::_Vector_impl_data", ptr %7, i32 0, i32 0
  %9 = load ptr, ptr %8, align 8, !tbaa !216
  %10 = ptrtoint ptr %6 to i64
  %11 = ptrtoint ptr %9 to i64
  %12 = sub i64 %10, %11
  %13 = sdiv exact i64 %12, 4
  ret i64 %13
}

; Function Attrs: mustprogress nounwind uwtable
define linkonce_odr hidden noundef zeroext i1 @_ZNKSt6vectorIiSaIiEE5emptyEv(ptr noundef nonnull align 8 dereferenceable(24) %0) #4 comdat align 2 {
  %2 = alloca ptr, align 8
  %3 = alloca %"class.__gnu_cxx::__normal_iterator.140", align 8
  %4 = alloca %"class.__gnu_cxx::__normal_iterator.140", align 8
  store ptr %0, ptr %2, align 8, !tbaa !215
  %5 = load ptr, ptr %2, align 8
  call void @llvm.lifetime.start.p0(i64 8, ptr %3) #3
  %6 = call ptr @_ZNKSt6vectorIiSaIiEE5beginEv(ptr noundef nonnull align 8 dereferenceable(24) %5) #3
  %7 = getelementptr inbounds nuw %"class.__gnu_cxx::__normal_iterator.140", ptr %3, i32 0, i32 0
  store ptr %6, ptr %7, align 8
  call void @llvm.lifetime.start.p0(i64 8, ptr %4) #3
  %8 = call ptr @_ZNKSt6vectorIiSaIiEE3endEv(ptr noundef nonnull align 8 dereferenceable(24) %5) #3
  %9 = getelementptr inbounds nuw %"class.__gnu_cxx::__normal_iterator.140", ptr %4, i32 0, i32 0
  store ptr %8, ptr %9, align 8
  %10 = call noundef zeroext i1 @_ZN9__gnu_cxxeqIPKiSt6vectorIiSaIiEEEEbRKNS_17__normal_iteratorIT_T0_EESB_(ptr noundef nonnull align 8 dereferenceable(8) %3, ptr noundef nonnull align 8 dereferenceable(8) %4) #3
  call void @llvm.lifetime.end.p0(i64 8, ptr %4) #3
  call void @llvm.lifetime.end.p0(i64 8, ptr %3) #3
  ret i1 %10
}

; Function Attrs: inlinehint mustprogress uwtable
define internal noundef i32 @_ZN2cv3dnn14dnn4_v20241223L5totalERKSt6vectorIiSaIiEEii(ptr noundef nonnull align 8 dereferenceable(24) %0, i32 noundef %1, i32 noundef %2) #8 {
  %4 = alloca i32, align 4
  %5 = alloca ptr, align 8
  %6 = alloca i32, align 4
  %7 = alloca i32, align 4
  %8 = alloca i32, align 4
  %9 = alloca i32, align 4
  %10 = alloca i32, align 4
  store ptr %0, ptr %5, align 8, !tbaa !215
  store i32 %1, ptr %6, align 4, !tbaa !26
  store i32 %2, ptr %7, align 4, !tbaa !26
  %11 = load ptr, ptr %5, align 8, !tbaa !215
  %12 = call noundef zeroext i1 @_ZNKSt6vectorIiSaIiEE5emptyEv(ptr noundef nonnull align 8 dereferenceable(24) %11) #3
  br i1 %12, label %13, label %14

13:                                               ; preds = %3
  store i32 0, ptr %4, align 4
  br label %77

14:                                               ; preds = %3
  call void @llvm.lifetime.start.p0(i64 4, ptr %8) #3
  %15 = load ptr, ptr %5, align 8, !tbaa !215
  %16 = call noundef i64 @_ZNKSt6vectorIiSaIiEE4sizeEv(ptr noundef nonnull align 8 dereferenceable(24) %15) #3
  %17 = trunc i64 %16 to i32
  store i32 %17, ptr %8, align 4, !tbaa !26
  %18 = load i32, ptr %6, align 4, !tbaa !26
  %19 = icmp eq i32 %18, -1
  br i1 %19, label %20, label %21

20:                                               ; preds = %14
  store i32 0, ptr %6, align 4, !tbaa !26
  br label %21

21:                                               ; preds = %20, %14
  %22 = load i32, ptr %7, align 4, !tbaa !26
  %23 = icmp eq i32 %22, -1
  br i1 %23, label %24, label %26

24:                                               ; preds = %21
  %25 = load i32, ptr %8, align 4, !tbaa !26
  store i32 %25, ptr %7, align 4, !tbaa !26
  br label %26

26:                                               ; preds = %24, %21
  br label %27

27:                                               ; preds = %26
  %28 = load i32, ptr %6, align 4, !tbaa !26
  %29 = icmp sle i32 0, %28
  br i1 %29, label %30, label %31

30:                                               ; preds = %27
  br label %33

31:                                               ; preds = %27
  %32 = load i32, ptr %6, align 4, !tbaa !26
  call void @_ZN2cv6detail17check_failed_autoEiiRKNS0_12CheckContextE(i32 noundef 0, i32 noundef %32, ptr noundef nonnull align 8 dereferenceable(48) @_ZZN2cv3dnn14dnn4_v20241223L5totalERKSt6vectorIiSaIiEEiiE15__cv_check__171) #30
  unreachable

33:                                               ; preds = %30
  br label %34

34:                                               ; preds = %33
  br label %35

35:                                               ; preds = %34
  br label %36

36:                                               ; preds = %35
  %37 = load i32, ptr %6, align 4, !tbaa !26
  %38 = load i32, ptr %7, align 4, !tbaa !26
  %39 = icmp sle i32 %37, %38
  br i1 %39, label %40, label %41

40:                                               ; preds = %36
  br label %44

41:                                               ; preds = %36
  %42 = load i32, ptr %6, align 4, !tbaa !26
  %43 = load i32, ptr %7, align 4, !tbaa !26
  call void @_ZN2cv6detail17check_failed_autoEiiRKNS0_12CheckContextE(i32 noundef %42, i32 noundef %43, ptr noundef nonnull align 8 dereferenceable(48) @_ZZN2cv3dnn14dnn4_v20241223L5totalERKSt6vectorIiSaIiEEiiE15__cv_check__172) #30
  unreachable

44:                                               ; preds = %40
  br label %45

45:                                               ; preds = %44
  br label %46

46:                                               ; preds = %45
  br label %47

47:                                               ; preds = %46
  %48 = load i32, ptr %7, align 4, !tbaa !26
  %49 = load i32, ptr %8, align 4, !tbaa !26
  %50 = icmp sle i32 %48, %49
  br i1 %50, label %51, label %52

51:                                               ; preds = %47
  br label %55

52:                                               ; preds = %47
  %53 = load i32, ptr %7, align 4, !tbaa !26
  %54 = load i32, ptr %8, align 4, !tbaa !26
  call void @_ZN2cv6detail17check_failed_autoEiiRKNS0_12CheckContextE(i32 noundef %53, i32 noundef %54, ptr noundef nonnull align 8 dereferenceable(48) @_ZZN2cv3dnn14dnn4_v20241223L5totalERKSt6vectorIiSaIiEEiiE15__cv_check__173) #30
  unreachable

55:                                               ; preds = %51
  br label %56

56:                                               ; preds = %55
  br label %57

57:                                               ; preds = %56
  call void @llvm.lifetime.start.p0(i64 4, ptr %9) #3
  store i32 1, ptr %9, align 4, !tbaa !26
  call void @llvm.lifetime.start.p0(i64 4, ptr %10) #3
  %58 = load i32, ptr %6, align 4, !tbaa !26
  store i32 %58, ptr %10, align 4, !tbaa !26
  br label %59

59:                                               ; preds = %72, %57
  %60 = load i32, ptr %10, align 4, !tbaa !26
  %61 = load i32, ptr %7, align 4, !tbaa !26
  %62 = icmp slt i32 %60, %61
  br i1 %62, label %64, label %63

63:                                               ; preds = %59
  call void @llvm.lifetime.end.p0(i64 4, ptr %10) #3
  br label %75

64:                                               ; preds = %59
  %65 = load ptr, ptr %5, align 8, !tbaa !215
  %66 = load i32, ptr %10, align 4, !tbaa !26
  %67 = sext i32 %66 to i64
  %68 = call noundef nonnull align 4 dereferenceable(4) ptr @_ZNKSt6vectorIiSaIiEEixEm(ptr noundef nonnull align 8 dereferenceable(24) %65, i64 noundef %67) #3
  %69 = load i32, ptr %68, align 4, !tbaa !26
  %70 = load i32, ptr %9, align 4, !tbaa !26
  %71 = mul nsw i32 %70, %69
  store i32 %71, ptr %9, align 4, !tbaa !26
  br label %72

72:                                               ; preds = %64
  %73 = load i32, ptr %10, align 4, !tbaa !26
  %74 = add nsw i32 %73, 1
  store i32 %74, ptr %10, align 4, !tbaa !26
  br label %59, !llvm.loop !475

75:                                               ; preds = %63
  %76 = load i32, ptr %9, align 4, !tbaa !26
  store i32 %76, ptr %4, align 4
  call void @llvm.lifetime.end.p0(i64 4, ptr %9) #3
  call void @llvm.lifetime.end.p0(i64 4, ptr %8) #3
  br label %77

77:                                               ; preds = %75, %13
  %78 = load i32, ptr %4, align 4
  ret i32 %78
}