; Function Attrs: inlinehint mustprogress uwtable
define internal fastcc noundef i32 @_ZN2cv3dnn14dnn4_v20241223L5totalERKSt6vectorIiSaIiEEii(ptr %.0.val, ptr %.8.val) unnamed_addr #9 {
  %1 = icmp eq ptr %.0.val, %.8.val
  br i1 %1, label %.loopexit, label %2

2:                                                ; preds = %0
  %3 = ptrtoint ptr %.8.val to i64
  %4 = ptrtoint ptr %.0.val to i64
  %5 = sub i64 %3, %4
  %6 = lshr exact i64 %5, 2
  %7 = trunc i64 %6 to i32
  %8 = icmp sgt i32 %7, -1
  br i1 %8, label %.preheader, label %9

.preheader:                                       ; preds = %2
  %.not = icmp eq i32 %7, 0
  br i1 %.not, label %.loopexit, label %.lr.ph.preheader

.lr.ph.preheader:                                 ; preds = %.preheader
  %wide.trip.count = and i64 %6, 2147483647
  br label %.lr.ph

9:                                                ; preds = %2
  tail call void @_ZN2cv6detail17check_failed_autoEiiRKNS0_12CheckContextE(i32 noundef 0, i32 noundef %7, ptr noundef nonnull align 8 dereferenceable(48) @_ZZN2cv3dnn14dnn4_v20241223L5totalERKSt6vectorIiSaIiEEiiE15__cv_check__172) #34
  unreachable

.lr.ph:                                           ; preds = %.lr.ph.preheader, %.lr.ph
  %indvars.iv = phi i64 [ 0, %.lr.ph.preheader ], [ %indvars.iv.next, %.lr.ph ]
  %.0231 = phi i32 [ 1, %.lr.ph.preheader ], [ %12, %.lr.ph ]
  %10 = getelementptr inbounds nuw i32, ptr %.0.val, i64 %indvars.iv
  %11 = load i32, ptr %10, align 4, !tbaa !45
  %12 = mul nsw i32 %11, %.0231
  %indvars.iv.next = add nuw nsw i64 %indvars.iv, 1
  %exitcond.not = icmp eq i64 %indvars.iv.next, %wide.trip.count
  br i1 %exitcond.not, label %.loopexit, label %.lr.ph, !llvm.loop !921

.loopexit:                                        ; preds = %.lr.ph, %.preheader, %0
  %.024 = phi i32 [ 0, %0 ], [ 1, %.preheader ], [ %12, %.lr.ph ]
  ret i32 %.024
}